; Function Attrs: mustprogress nofree nounwind willreturn memory(read, inaccessiblemem: none) uwtable
define hidden noundef zeroext i1 @_ZNK6google8protobuf8internal11AnyMetadata10InternalIsENS0_20stringpiece_internal11StringPieceE(ptr noundef nonnull readonly align 8 captures(none) dereferenceable(16) %0, ptr readonly captures(none) %1, i64 %2) local_unnamed_addr #6 align 2 {
  %4 = load ptr, ptr %0, align 8, !tbaa !12
  %5 = load ptr, ptr %4, align 8, !tbaa !26
  %6 = ptrtoint ptr %5 to i64
  %7 = and i64 %6, -2
  %8 = inttoptr i64 %7 to ptr
  %9 = getelementptr inbounds nuw i8, ptr %8, i64 8
  %10 = load i64, ptr %9, align 8, !tbaa !24
  %11 = add i64 %2, 1
  %.not = icmp ult i64 %10, %11
  br i1 %.not, label %_ZN6google8protobuf15HasSuffixStringENS0_20stringpiece_internal11StringPieceES2_.exit, label %12

12:                                               ; preds = %3
  %13 = load ptr, ptr %8, align 8, !tbaa !21
  %14 = xor i64 %2, -1
  %15 = getelementptr i8, ptr %13, i64 %10
  %16 = getelementptr i8, ptr %15, i64 %14
  %17 = load i8, ptr %16, align 1, !tbaa !3
  %18 = icmp ne i8 %17, 47
  %.not.i = icmp ult i64 %10, %2
  %or.cond = or i1 %.not.i, %18
  br i1 %or.cond, label %_ZN6google8protobuf15HasSuffixStringENS0_20stringpiece_internal11StringPieceES2_.exit, label %19

19:                                               ; preds = %12
  %20 = sub i64 0, %2
  %21 = getelementptr inbounds i8, ptr %15, i64 %20
  %bcmp.i = tail call i32 @bcmp(ptr %21, ptr %1, i64 %2)
  %22 = icmp eq i32 %bcmp.i, 0
  br label %_ZN6google8protobuf15HasSuffixStringENS0_20stringpiece_internal11StringPieceES2_.exit

_ZN6google8protobuf15HasSuffixStringENS0_20stringpiece_internal11StringPieceES2_.exit: ; preds = %19, %12, %3
  %23 = phi i1 [ false, %12 ], [ false, %3 ], [ %22, %19 ]
  ret i1 %23
}